; Function Attrs: mustprogress nofree norecurse nosync nounwind willreturn memory(readwrite, inaccessiblemem: none) uwtable
define dso_local void @clusterUpdateMyselfFlags() local_unnamed_addr #21 {
  %1 = load ptr, ptr @myself, align 8, !tbaa !46
  %.not = icmp eq ptr %1, null
  br i1 %.not, label %14, label %2

2:                                                ; preds = %0
  %3 = getelementptr inbounds nuw i8, ptr %1, i64 88
  %4 = load i32, ptr %3, align 8, !tbaa !82
  %5 = load i32, ptr getelementptr inbounds nuw (i8, ptr @server, i64 7944), align 8, !tbaa !109
  %.not2 = icmp eq i32 %5, 0
  %6 = select i1 %.not2, i32 0, i32 512
  %7 = and i32 %4, -513
  %8 = or disjoint i32 %6, %7
  store i32 %8, ptr %3, align 8, !tbaa !82
  %.not3 = icmp eq i32 %8, %4
  br i1 %.not3, label %14, label %9

9:                                                ; preds = %2
  %10 = load ptr, ptr getelementptr inbounds nuw (i8, ptr @server, i64 7920), align 8, !tbaa !56
  %11 = getelementptr inbounds nuw i8, ptr %10, i64 393384
  %12 = load i32, ptr %11, align 8, !tbaa !57
  %13 = or i32 %12, 6
  store i32 %13, ptr %11, align 8, !tbaa !57
  br label %14

14:                                               ; preds = %2, %9, %0
  ret void
}